; Function Attrs: mustprogress nofree norecurse nosync nounwind willreturn memory(readwrite, inaccessiblemem: none) uwtable
define internal fastcc void @do_item_unlink_q(ptr noundef readonly captures(address) %0) unnamed_addr #9 {
  %2 = getelementptr inbounds nuw i8, ptr %0, i64 40
  %3 = load i8, ptr %2, align 8, !tbaa !30
  %4 = zext i8 %3 to i64
  %5 = getelementptr inbounds nuw [256 x ptr], ptr @heads, i64 0, i64 %4
  %6 = getelementptr inbounds nuw [256 x ptr], ptr @tails, i64 0, i64 %4
  %7 = load ptr, ptr %5, align 8, !tbaa !28
  %8 = icmp eq ptr %7, %0
  br i1 %8, label %9, label %11

9:                                                ; preds = %1
  %10 = load ptr, ptr %0, align 8, !tbaa !28
  store ptr %10, ptr %5, align 8, !tbaa !28
  br label %11

11:                                               ; preds = %9, %1
  %12 = load ptr, ptr %6, align 8, !tbaa !28
  %13 = icmp eq ptr %12, %0
  br i1 %13, label %14, label %17

14:                                               ; preds = %11
  %15 = getelementptr inbounds nuw i8, ptr %0, i64 8
  %16 = load ptr, ptr %15, align 8, !tbaa !28
  store ptr %16, ptr %6, align 8, !tbaa !28
  br label %17

17:                                               ; preds = %14, %11
  %18 = load ptr, ptr %0, align 8, !tbaa !28
  %.not = icmp eq ptr %18, null
  %.phi.trans.insert = getelementptr inbounds nuw i8, ptr %0, i64 8
  %.pre = load ptr, ptr %.phi.trans.insert, align 8, !tbaa !28
  br i1 %.not, label %._crit_edge, label %19

19:                                               ; preds = %17
  %20 = getelementptr inbounds nuw i8, ptr %18, i64 8
  store ptr %.pre, ptr %20, align 8, !tbaa !28
  br label %._crit_edge

._crit_edge:                                      ; preds = %17, %19
  %.not31 = icmp eq ptr %.pre, null
  br i1 %.not31, label %23, label %21

21:                                               ; preds = %._crit_edge
  %22 = load ptr, ptr %0, align 8, !tbaa !28
  store ptr %22, ptr %.pre, align 8, !tbaa !28
  br label %23

23:                                               ; preds = %21, %._crit_edge
  %24 = load i8, ptr %2, align 8, !tbaa !30
  %25 = zext i8 %24 to i64
  %26 = getelementptr inbounds nuw [256 x i32], ptr @sizes, i64 0, i64 %25
  %27 = load i32, ptr %26, align 4, !tbaa !22
  %28 = add i32 %27, -1
  store i32 %28, ptr %26, align 4, !tbaa !22
  %29 = getelementptr inbounds nuw i8, ptr %0, i64 38
  %30 = load i16, ptr %29, align 2, !tbaa !31
  %31 = zext i16 %30 to i32
  %32 = and i32 %31, 128
  %.not32 = icmp eq i32 %32, 0
  %33 = getelementptr inbounds nuw i8, ptr %0, i64 41
  %34 = load i8, ptr %33, align 1, !tbaa !30
  %35 = zext i8 %34 to i64
  br i1 %.not32, label %47, label %36

36:                                               ; preds = %23
  %37 = lshr i32 %31, 6
  %38 = and i32 %37, 4
  %39 = shl nuw nsw i32 %31, 2
  %40 = and i32 %39, 8
  %41 = getelementptr inbounds nuw [256 x i64], ptr @sizes_bytes, i64 0, i64 %25
  %42 = load i64, ptr %41, align 8, !tbaa !14
  %43 = or disjoint i32 %38, %40
  %44 = zext nneg i32 %43 to i64
  %45 = add nuw nsw i64 %44, %35
  %reass.sub = sub i64 %42, %45
  %46 = add i64 %reass.sub, -61
  store i64 %46, ptr %41, align 8, !tbaa !14
  br label %62

47:                                               ; preds = %23
  %48 = getelementptr inbounds nuw i8, ptr %0, i64 32
  %49 = load i32, ptr %48, align 8, !tbaa !22
  %50 = sext i32 %49 to i64
  %51 = lshr i32 %31, 6
  %52 = and i32 %51, 4
  %53 = shl nuw nsw i32 %31, 2
  %54 = and i32 %53, 8
  %55 = getelementptr inbounds nuw [256 x i64], ptr @sizes_bytes, i64 0, i64 %25
  %56 = load i64, ptr %55, align 8, !tbaa !14
  %57 = or disjoint i32 %52, %54
  %58 = zext nneg i32 %57 to i64
  %59 = add nuw nsw i64 %58, %35
  %60 = add nsw i64 %59, %50
  %reass.sub54 = sub i64 %56, %60
  %61 = add i64 %reass.sub54, -49
  store i64 %61, ptr %55, align 8, !tbaa !14
  br label %62

62:                                               ; preds = %47, %36
  ret void
}